; Function Attrs: mustprogress nofree norecurse nosync nounwind sspstrong willreturn memory(read, inaccessiblemem: none) uwtable
define dso_local nonnull ptr @rb_ruby_verbose_ptr() local_unnamed_addr #1 {
  %1 = load ptr, ptr @ruby_single_main_ractor, align 8, !tbaa !110
  %.not.i.i = icmp eq ptr %1, null
  br i1 %.not.i.i, label %2, label %rb_current_ractor.exit

2:                                                ; preds = %0
  %3 = tail call align 8 ptr @llvm.threadlocal.address.p0(ptr align 8 @ruby_current_ec)
  %4 = load ptr, ptr %3, align 8, !tbaa !27
  %5 = getelementptr i8, ptr %4, i64 48
  %.val.i.i = load ptr, ptr %5, align 8, !tbaa !29
  %.not.i.i.i = icmp eq ptr %.val.i.i, null
  br i1 %.not.i.i.i, label %rb_current_ractor.exit, label %6

6:                                                ; preds = %2
  %7 = getelementptr inbounds nuw i8, ptr %.val.i.i, i64 24
  %8 = load ptr, ptr %7, align 8, !tbaa !251
  br label %rb_current_ractor.exit

rb_current_ractor.exit:                           ; preds = %0, %2, %6
  %.0.i.i = phi ptr [ %1, %0 ], [ %8, %6 ], [ null, %2 ]
  %9 = getelementptr inbounds nuw i8, ptr %.0.i.i, i64 496
  ret ptr %9
}